Certificate:
    Data:
        Version: 3 (0x2)
        Serial Number:
            c1:1c:a7:3c:17:5d:14:a3:d9:df:9c:4d:7a:31:6a:ef
    Signature Algorithm: sha256WithRSAEncryption
        Issuer: CN=Easy-RSA CA
        Validity
            Not Before: Jul  8 00:37:22 2020 GMT
            Not After : Jul  6 00:37:22 2030 GMT
        Subject: CN=client
        Subject Public Key Info:
            Public Key Algorithm: rsaEncryption
                Public-Key: (2048 bit)
                Modulus:
                    00:c0:21:01:58:28:5f:59:10:68:11:62:16:6e:a6:
                    16:71:dd:cd:c9:72:98:0a:a5:db:9c:b6:d2:24:59:
                    5d:85:a2:85:a3:4e:6f:b7:ff:73:2c:c8:71:8a:00:
                    f9:82:90:e7:61:6b:0d:c8:ee:cd:28:5e:f9:01:c7:
                    ae:c6:72:70:e9:67:e7:6e:63:dd:68:43:01:1c:67:
                    de:94:bd:f7:c3:2a:75:da:57:c2:ab:42:cf:2c:97:
                    77:bd:bb:cf:2d:29:0d:44:88:f1:1a:6a:17:26:32:
                    64:89:0c:28:77:7d:40:b3:0c:d9:de:aa:da:79:99:
                    3f:e2:3c:13:2e:8c:ff:90:f5:e9:1f:8d:8c:0e:a1:
                    eb:a0:69:29:02:dd:f4:56:86:74:ff:ea:09:9c:20:
                    ec:cc:e5:44:4f:84:2d:d9:15:af:e7:0a:51:1f:88:
                    83:e9:c5:ae:0f:c2:01:e3:7f:fc:29:3b:72:5b:90:
                    2d:b3:ba:a4:bd:39:ef:4c:82:b6:ae:4d:f4:07:0b:
                    9a:21:3f:41:cf:fd:43:b1:a3:61:72:51:10:a0:3a:
                    4e:4e:66:fb:bd:b8:b1:e6:56:7b:c6:b7:af:81:57:
                    5a:c8:30:e3:11:91:8f:90:56:5d:18:1a:28:34:7b:
                    50:e4:e6:b0:e2:92:f3:a5:40:3a:bc:3f:26:2f:08:
                    2a:c5
                Exponent: 65537 (0x10001)
        X509v3 extensions:
            X509v3 Basic Constraints: 
                CA:FALSE
            X509v3 Subject Key Identifier: 
                41:7A:8D:9F:57:1E:CD:75:93:8A:75:0F:73:38:2F:21:76:5F:41:2D
            X509v3 Authority Key Identifier: 
                keyid:D5:78:DF:B0:C3:AB:C2:9C:28:CB:C8:A0:34:6D:BE:59:C2:3B:26:E1
                DirName:/CN=Easy-RSA CA
                serial:98:B5:8C:73:14:24:0F:F0

            X509v3 Extended Key Usage: 
                TLS Web Client Authentication
            X509v3 Key Usage: 
                Digital Signature
    Signature Algorithm: sha256WithRSAEncryption
         ca:ac:78:3a:80:8b:c1:2e:7c:de:5e:15:b3:52:55:85:5d:2e:
         0c:ce:af:f5:f3:bb:ee:c6:8d:68:39:97:fa:03:31:59:d5:6b:
         80:e4:de:84:f6:ca:38:cf:88:69:87:5a:de:76:24:66:b9:3a:
         de:51:d3:f3:1a:6a:d4:56:d2:18:a7:7b:c3:29:dc:03:81:fb:
         e6:9d:19:2f:43:94:fd:1e:24:18:25:2f:0d:b6:ac:c8:55:ce:
         0f:8e:fd:3f:86:b2:57:fe:1c:0b:12:8b:e0:f1:fa:4a:16:cb:
         67:2a:bb:55:1c:a6:bc:46:4b:78:e1:6d:ec:fb:27:a5:95:e0:
         2a:a4:5b:50:64:0b:7c:b2:e1:46:b9:9f:1c:51:1c:95:aa:cd:
         47:a8:0f:1b:fd:a9:d2:94:5c:7d:27:ce:2b:ac:ac:6b:67:c5:
         ad:7c:c0:c4:dd:2f:73:de:42:7c:51:21:f4:73:5e:5b:fb:11:
         1d:c2:fd:d9:e6:bb:ac:23:2f:8c:7e:93:ff:34:05:3a:ca:d3:
         3f:0d:32:e7:9e:df:4d:50:29:9c:33:11:1d:e8:65:0d:8a:1c:
         85:e4:ce:5a:79:cb:f3:d7:cd:e5:58:75:c8:ff:eb:61:28:8c:
         39:aa:3b:e9:48:f7:46:a0:27:b1:6c:6b:af:89:a5:df:05:f2:
         cc:9e:e8:5f
-----BEGIN CERTIFICATE-----
MIIDSjCCAjKgAwIBAgIRAMEcpzwXXRSj2d+cTXoxau8wDQYJKoZIhvcNAQELBQAw
FjEUMBIGA1UEAwwLRWFzeS1SU0EgQ0EwHhcNMjAwNzA4MDAzNzIyWhcNMzAwNzA2
MDAzNzIyWjARMQ8wDQYDVQQDDAZjbGllbnQwggEiMA0GCSqGSIb3DQEBAQUAA4IB
DwAwggEKAoIBAQDAIQFYKF9ZEGgRYhZuphZx3c3JcpgKpducttIkWV2FooWjTm+3
/3MsyHGKAPmCkOdhaw3I7s0oXvkBx67GcnDpZ+duY91oQwEcZ96UvffDKnXaV8Kr
Qs8sl3e9u88tKQ1EiPEaahcmMmSJDCh3fUCzDNneqtp5mT/iPBMujP+Q9ekfjYwO
oeugaSkC3fRWhnT/6gmcIOzM5URPhC3ZFa/nClEfiIPpxa4PwgHjf/wpO3JbkC2z
uqS9Oe9MgrauTfQHC5ohP0HP/UOxo2FyURCgOk5OZvu9uLHmVnvGt6+BV1rIMOMR
kY+QVl0YGig0e1Dk5rDikvOlQDq8PyYvCCrFAgMBAAGjgZcwgZQwCQYDVR0TBAIw
ADAdBgNVHQ4EFgQUQXqNn1cezXWTinUPczgvIXZfQS0wRgYDVR0jBD8wPYAU1Xjf
sMOrwpwoy8igNG2+WcI7JuGhGqQYMBYxFDASBgNVBAMMC0Vhc3ktUlNBIENBggkA
mLWMcxQkD/AwEwYDVR0lBAwwCgYIKwYBBQUHAwIwCwYDVR0PBAQDAgeAMA0GCSqG
SIb3DQEBCwUAA4IBAQDKrHg6gIvBLnzeXhWzUlWFXS4Mzq/187vuxo1oOZf6AzFZ
1WuA5N6E9so4z4hph1rediRmuTreUdPzGmrUVtIYp3vDKdwDgfvmnRkvQ5T9HiQY
JS8NtqzIVc4Pjv0/hrJX/hwLEovg8fpKFstnKrtVHKa8Rkt44W3s+yelleAqpFtQ
ZAt8suFGuZ8cURyVqs1HqA8b/anSlFx9J84rrKxrZ8WtfMDE3S9z3kJ8USH0c15b
+xEdwv3Z5rusIy+MfpP/NAU6ytM/DTLnnt9NUCmcMxEd6GUNihyF5M5aecvz183l
WHXI/+thKIw5qjvpSPdGoCexbGuviaXfBfLMnuhf
-----END CERTIFICATE-----
